Certificate:
    Data:
        Version: 3 (0x2)
        Serial Number: 1 (0x1)
    Signature Algorithm: sha256WithRSAEncryption
        Issuer: C=FR, ST=IDF, L=Cr\xC3\xA9teil, O=UPEC, OU=UPEC Sciences, CN=UPEC CA/name=CA/emailAddress=ca@u-pec.fr
        Validity
            Not Before: Jan 19 22:44:13 2016 GMT
            Not After : Jan 16 22:44:13 2026 GMT
        Subject: C=FR, ST=IDF, L=Paris, O=Aliou, OU=AliouUpec, CN=Aliou/name=aliou/emailAddress=aliou@u-pec.fr
        Subject Public Key Info:
            Public Key Algorithm: rsaEncryption
                Public-Key: (2048 bit)
                Modulus:
                    00:c5:56:62:1d:0c:e2:43:45:fb:c8:a6:a2:bf:f3:
                    4f:49:ff:b7:51:11:a1:57:e5:31:e2:6d:b5:e9:8a:
                    54:8d:36:85:70:3c:f9:5d:5c:96:4a:a3:be:b6:95:
                    07:42:e4:7e:84:a5:cd:ea:aa:19:69:0e:22:49:80:
                    84:f3:a4:2b:7d:fa:d0:54:73:cc:31:5a:8a:b2:6e:
                    8d:c0:5f:b9:99:62:32:8b:05:f8:30:d4:57:5d:fe:
                    82:87:19:14:ad:2f:bf:f4:b9:09:2f:46:bf:93:99:
                    3b:21:22:6a:be:ab:34:47:de:03:d9:4b:15:b0:26:
                    22:f4:3b:e8:2b:df:97:02:32:d1:48:ea:9d:f3:16:
                    13:27:87:a1:24:b9:da:af:52:31:44:f0:e2:1c:fc:
                    ee:a1:8c:47:58:db:78:27:b9:0c:0e:7c:8c:4e:cf:
                    e9:8f:bf:d6:15:a3:7e:c4:47:15:d6:d2:b4:c7:be:
                    68:a0:24:c4:61:a8:ad:85:5f:6c:13:17:4c:5f:0e:
                    e7:69:24:4f:db:30:0a:5e:a3:aa:58:1d:62:63:8c:
                    eb:b1:69:2f:76:bf:48:b0:2f:cc:08:b2:9b:9d:bb:
                    81:02:95:94:4b:e3:b8:23:5e:54:78:2a:31:fc:c9:
                    02:4a:34:0c:03:db:23:30:22:4a:e6:1e:09:e7:fc:
                    a6:0b
                Exponent: 65537 (0x10001)
        X509v3 extensions:
            X509v3 Basic Constraints: 
                CA:FALSE
            Netscape Cert Type: 
                SSL Server
            Netscape Comment: 
                Easy-RSA Generated Server Certificate
            X509v3 Subject Key Identifier: 
                B4:82:E6:89:14:71:17:C5:04:D9:62:4D:C0:50:16:CE:B9:79:E3:23
            X509v3 Authority Key Identifier: 
                keyid:65:A8:76:48:83:AA:6A:8E:11:B7:6E:AB:26:FA:D2:D0:5E:F1:B3:2B
                DirName:/C=FR/ST=IDF/L=Cr\xC3\xA9teil/O=UPEC/OU=UPEC Sciences/CN=UPEC CA/name=CA/emailAddress=ca@u-pec.fr
                serial:EA:8C:AD:F3:A9:49:EE:30

            X509v3 Extended Key Usage: 
                TLS Web Server Authentication
            X509v3 Key Usage: 
                Digital Signature, Key Encipherment
            X509v3 Subject Alternative Name: 
                DNS:server-aliou
    Signature Algorithm: sha256WithRSAEncryption
         f0:ba:3f:48:02:0e:a6:92:b7:fa:51:6f:4f:d3:93:89:d9:65:
         3b:7b:ff:30:2e:f0:1f:cf:4e:7c:bc:62:a9:ae:46:1a:f8:af:
         cd:06:c2:ba:72:1f:c2:79:f8:4c:fa:04:cf:5e:d4:81:aa:97:
         ef:a6:15:fd:e0:11:fd:35:14:34:14:aa:c4:7a:9d:39:24:c8:
         66:8b:67:91:3e:19:36:fa:5d:74:10:ac:bd:fa:7b:a7:52:82:
         be:b4:07:0e:8a:a6:95:d6:17:63:f2:9d:fe:c5:8f:39:74:fa:
         fe:79:10:f1:f5:3a:27:d2:ac:b7:ca:0a:5a:da:36:f5:c8:33:
         5e:b1:47:85:cf:b6:e2:fb:5a:2b:c2:83:43:dd:e5:7c:69:52:
         3d:d0:64:0c:60:f4:44:4c:d2:82:17:1e:d4:b7:e7:4e:ba:8d:
         04:51:4b:c5:c9:c1:a2:db:d0:31:e1:3e:71:c1:2f:7f:45:6e:
         b1:7f:3d:eb:af:9a:08:a4:cb:99:0d:06:3a:99:d3:33:04:e2:
         9b:d3:f2:bc:3b:eb:be:b5:86:6c:c9:3c:9e:36:52:34:e7:4e:
         cb:32:a4:3d:f1:bc:45:57:32:99:13:23:63:bf:c8:4a:38:23:
         7f:e8:f3:68:76:a7:7b:58:ae:37:ac:95:89:21:e8:3f:68:bd:
         05:97:bc:f2
-----BEGIN CERTIFICATE-----
MIIFFzCCA/+gAwIBAgIBATANBgkqhkiG9w0BAQsFADCBkDELMAkGA1UEBhMCRlIx
DDAKBgNVBAgTA0lERjERMA8GA1UEBxQIQ3LDqXRlaWwxDTALBgNVBAoTBFVQRUMx
FjAUBgNVBAsTDVVQRUMgU2NpZW5jZXMxEDAOBgNVBAMTB1VQRUMgQ0ExCzAJBgNV
BCkTAkNBMRowGAYJKoZIhvcNAQkBFgtjYUB1LXBlYy5mcjAeFw0xNjAxMTkyMjQ0
MTNaFw0yNjAxMTYyMjQ0MTNaMIGOMQswCQYDVQQGEwJGUjEMMAoGA1UECBMDSURG
MQ4wDAYDVQQHEwVQYXJpczEOMAwGA1UEChMFQWxpb3UxEjAQBgNVBAsTCUFsaW91
VXBlYzEOMAwGA1UEAxMFQWxpb3UxDjAMBgNVBCkTBWFsaW91MR0wGwYJKoZIhvcN
AQkBFg5hbGlvdUB1LXBlYy5mcjCCASIwDQYJKoZIhvcNAQEBBQADggEPADCCAQoC
ggEBAMVWYh0M4kNF+8imor/zT0n/t1ERoVflMeJttemKVI02hXA8+V1clkqjvraV
B0LkfoSlzeqqGWkOIkmAhPOkK3360FRzzDFairJujcBfuZliMosF+DDUV13+gocZ
FK0vv/S5CS9Gv5OZOyEiar6rNEfeA9lLFbAmIvQ76CvflwIy0UjqnfMWEyeHoSS5
2q9SMUTw4hz87qGMR1jbeCe5DA58jE7P6Y+/1hWjfsRHFdbStMe+aKAkxGGorYVf
bBMXTF8O52kkT9swCl6jqlgdYmOM67FpL3a/SLAvzAiym527gQKVlEvjuCNeVHgq
MfzJAko0DAPbIzAiSuYeCef8pgsCAwEAAaOCAXowggF2MAkGA1UdEwQCMAAwEQYJ
YIZIAYb4QgEBBAQDAgZAMDQGCWCGSAGG+EIBDQQnFiVFYXN5LVJTQSBHZW5lcmF0
ZWQgU2VydmVyIENlcnRpZmljYXRlMB0GA1UdDgQWBBS0guaJFHEXxQTZYk3AUBbO
uXnjIzCBxQYDVR0jBIG9MIG6gBRlqHZIg6pqjhG3bqsm+tLQXvGzK6GBlqSBkzCB
kDELMAkGA1UEBhMCRlIxDDAKBgNVBAgTA0lERjERMA8GA1UEBxQIQ3LDqXRlaWwx
DTALBgNVBAoTBFVQRUMxFjAUBgNVBAsTDVVQRUMgU2NpZW5jZXMxEDAOBgNVBAMT
B1VQRUMgQ0ExCzAJBgNVBCkTAkNBMRowGAYJKoZIhvcNAQkBFgtjYUB1LXBlYy5m
coIJAOqMrfOpSe4wMBMGA1UdJQQMMAoGCCsGAQUFBwMBMAsGA1UdDwQEAwIFoDAX
BgNVHREEEDAOggxzZXJ2ZXItYWxpb3UwDQYJKoZIhvcNAQELBQADggEBAPC6P0gC
DqaSt/pRb0/Tk4nZZTt7/zAu8B/PTny8YqmuRhr4r80GwrpyH8J5+Ez6BM9e1IGq
l++mFf3gEf01FDQUqsR6nTkkyGaLZ5E+GTb6XXQQrL36e6dSgr60Bw6KppXWF2Py
nf7Fjzl0+v55EPH1OifSrLfKClraNvXIM16xR4XPtuL7WivCg0Pd5XxpUj3QZAxg
9ERM0oIXHtS35066jQRRS8XJwaLb0DHhPnHBL39FbrF/Peuvmgiky5kNBjqZ0zME
4pvT8rw76761hmzJPJ42UjTnTssypD3xvEVXMpkTI2O/yEo4I3/o82h2p3tYrjes
lYkh6D9ovQWXvPI=
-----END CERTIFICATE-----
